Certificate:
    Data:
        Version: 3 (0x2)
        Serial Number: 0 (0x0)
    Signature Algorithm: sha256WithRSAEncryption
        Issuer: C=KR, ST=Seoul, L=Seoul, O=ca.pi.somansa, OU=lab, CN=ca.pi.somansa/emailAddress=email@somansa.com
        Validity
            Not Before: Jul 31 11:37:34 2012 GMT
            Not After : Jul 31 11:37:34 2013 GMT
        Subject: C=KR, ST=Seoul, O=ca.pi.somansa, OU=lab, CN=server.pi.somansa/emailAddress=email@somansa.com
        Subject Public Key Info:
            Public Key Algorithm: rsaEncryption
                Public-Key: (2048 bit)
                Modulus:
                    00:be:2f:af:0c:0b:23:49:97:07:75:57:db:78:90:
                    5a:24:30:d0:3a:98:48:25:2a:eb:99:90:e0:46:f5:
                    d9:4b:a8:d3:40:0e:4a:de:0a:69:2b:9c:f9:f3:08:
                    f6:d0:ae:47:77:71:ec:fe:a7:3c:a7:27:39:c2:90:
                    8b:5c:81:af:3a:e3:62:f9:8a:7f:c0:cd:31:0b:7e:
                    7e:9c:a2:d3:20:70:c1:ee:5f:53:4d:17:38:31:07:
                    04:9d:a5:07:e9:34:ba:84:93:d1:68:56:75:77:f6:
                    b2:91:15:0d:47:bb:fc:ba:28:12:72:96:10:a2:c1:
                    3c:be:17:12:d4:69:fe:79:cb:b0:9e:bd:54:ee:e0:
                    a2:f4:a3:37:06:89:67:09:c1:ae:d2:a2:26:a0:fe:
                    4f:5d:29:22:b0:96:56:bd:73:3b:1e:9a:d1:fd:29:
                    f9:7c:4f:f2:b2:85:da:b7:1c:38:49:04:8f:24:95:
                    60:c0:60:ac:8a:85:dd:96:d7:9e:a9:a6:dd:ea:4c:
                    68:89:10:6d:3a:34:fb:b3:13:48:04:93:cf:16:19:
                    d6:4f:1d:d2:37:5e:c8:dc:a4:4c:00:5f:a5:35:46:
                    d9:04:b1:f0:77:8e:1a:cc:58:9f:09:7d:5c:fb:f2:
                    13:94:20:57:9f:74:1e:62:56:23:48:1a:1e:0f:51:
                    c1:b3
                Exponent: 65537 (0x10001)
        X509v3 extensions:
            X509v3 Basic Constraints: 
                CA:FALSE
            Netscape Comment: 
                OpenSSL Generated Certificate
            X509v3 Subject Key Identifier: 
                25:33:FE:BA:B9:7E:9E:FD:55:CA:58:40:F0:AF:B3:90:4B:E0:38:9B
            X509v3 Authority Key Identifier: 
                keyid:37:94:18:B7:BB:62:DC:54:C2:12:11:74:71:B6:82:BF:48:F1:43:0D

    Signature Algorithm: sha256WithRSAEncryption
         7b:85:af:6c:be:40:98:e9:4e:45:8d:18:1b:b8:2a:d0:71:a6:
         70:77:5a:1f:c2:46:cc:a8:ed:b7:74:50:f6:f7:c2:71:36:ba:
         1e:7d:77:53:d5:0a:41:19:86:a6:fe:45:02:5d:60:5f:58:12:
         c2:aa:40:d0:64:96:9b:6c:ca:bd:41:08:58:b7:52:43:99:48:
         cd:60:c2:64:a6:ea:a9:97:d8:50:70:e4:3b:37:6c:1f:0d:b7:
         f9:58:da:ac:45:be:2f:88:e2:6d:cd:a4:f9:0e:e8:f9:8a:72:
         95:97:b2:20:21:63:4a:a6:44:f8:4d:0d:a8:7d:ad:b0:ed:65:
         f2:c4:84:b6:86:19:69:48:b2:8d:96:b7:21:bf:b7:19:57:1a:
         09:47:91:2d:d7:01:dc:ac:d3:c7:f3:89:20:ce:ee:32:57:1e:
         d2:25:16:d6:7f:69:cd:ed:70:39:d0:ac:15:bf:7b:e3:1a:ee:
         e2:69:c2:9f:92:46:4c:52:36:40:6d:18:8f:e5:51:e2:86:71:
         d5:51:7d:37:8c:2b:d0:c3:b9:83:a9:f1:01:73:d7:22:74:87:
         36:66:78:f1:58:cc:f7:a0:87:16:85:1e:e5:5f:95:a2:34:dd:
         20:9c:f4:3a:d3:fe:dc:86:74:69:69:0a:94:62:35:04:a6:45:
         f0:a7:e1:86
-----BEGIN CERTIFICATE-----
MIIEBjCCAu6gAwIBAgIBADANBgkqhkiG9w0BAQsFADCBjTELMAkGA1UEBhMCS1Ix
DjAMBgNVBAgMBVNlb3VsMQ4wDAYDVQQHDAVTZW91bDEWMBQGA1UECgwNY2EucGku
c29tYW5zYTEMMAoGA1UECwwDbGFiMRYwFAYDVQQDDA1jYS5waS5zb21hbnNhMSAw
HgYJKoZIhvcNAQkBFhFlbWFpbEBzb21hbnNhLmNvbTAeFw0xMjA3MzExMTM3MzRa
Fw0xMzA3MzExMTM3MzRaMIGBMQswCQYDVQQGEwJLUjEOMAwGA1UECAwFU2VvdWwx
FjAUBgNVBAoMDWNhLnBpLnNvbWFuc2ExDDAKBgNVBAsMA2xhYjEaMBgGA1UEAwwR
c2VydmVyLnBpLnNvbWFuc2ExIDAeBgkqhkiG9w0BCQEWEWVtYWlsQHNvbWFuc2Eu
Y29tMIIBIjANBgkqhkiG9w0BAQEFAAOCAQ8AMIIBCgKCAQEAvi+vDAsjSZcHdVfb
eJBaJDDQOphIJSrrmZDgRvXZS6jTQA5K3gppK5z58wj20K5Hd3Hs/qc8pyc5wpCL
XIGvOuNi+Yp/wM0xC35+nKLTIHDB7l9TTRc4MQcEnaUH6TS6hJPRaFZ1d/aykRUN
R7v8uigScpYQosE8vhcS1Gn+ecuwnr1U7uCi9KM3BolnCcGu0qImoP5PXSkisJZW
vXM7HprR/Sn5fE/ysoXatxw4SQSPJJVgwGCsioXdlteeqabd6kxoiRBtOjT7sxNI
BJPPFhnWTx3SN17I3KRMAF+lNUbZBLHwd44azFifCX1c+/ITlCBXn3QeYlYjSBoe
D1HBswIDAQABo3sweTAJBgNVHRMEAjAAMCwGCWCGSAGG+EIBDQQfFh1PcGVuU1NM
IEdlbmVyYXRlZCBDZXJ0aWZpY2F0ZTAdBgNVHQ4EFgQUJTP+url+nv1VylhA8K+z
kEvgOJswHwYDVR0jBBgwFoAUN5QYt7ti3FTCEhF0cbaCv0jxQw0wDQYJKoZIhvcN
AQELBQADggEBAHuFr2y+QJjpTkWNGBu4KtBxpnB3Wh/CRsyo7bd0UPb3wnE2uh59
d1PVCkEZhqb+RQJdYF9YEsKqQNBklptsyr1BCFi3UkOZSM1gwmSm6qmX2FBw5Ds3
bB8Nt/lY2qxFvi+I4m3NpPkO6PmKcpWXsiAhY0qmRPhNDah9rbDtZfLEhLaGGWlI
so2WtyG/txlXGglHkS3XAdys08fziSDO7jJXHtIlFtZ/ac3tcDnQrBW/e+Ma7uJp
wp+SRkxSNkBtGI/lUeKGcdVRfTeMK9DDuYOp8QFz1yJ0hzZmePFYzPeghxaFHuVf
laI03SCc9DrT/tyGdGlpCpRiNQSmRfCn4YY=
-----END CERTIFICATE-----
